(lp0
S'poi'
p1
aS'salary'
p2
aS'total_payments'
p3
aS'loan_advances'
p4
aS'bonus'
p5
aS'expenses'
p6
aS'exercised_stock_options'
p7
aS'other'
p8
aS'long_term_incentive'
p9
aS'director_fees'
p10
aS'from_poi_to_this_person'
p11
aS'from_this_person_to_poi'
p12
aS'shared_receipt_with_poi'
p13
aS'percent_of_total_messages_to_poi'
p14
aS'deferred_income'
p15
aS'deferral_payments'
p16
aS'restricted_stock'
p17
aS'restricted_stock_deferred'
p18
aS'total_stock_value'
p19
a.